; Function Attrs: mustprogress uwtable
define void @_ZN10SearchMenu6editedERK7QString(ptr noundef nonnull align 8 dereferenceable(72) %0, ptr nocapture noundef nonnull readonly align 8 dereferenceable(8) %1) local_unnamed_addr #2 align 2 personality ptr @__gxx_personality_v0 {
  %3 = alloca %class.QList, align 8
  store ptr @_ZN9QListData11shared_nullE, ptr %3, align 8
  invoke void @_ZN10SearchMenu10getResultsERK7QStringR5QListIP7QActionE(ptr noundef nonnull align 8 dereferenceable(72) %0, ptr noundef nonnull align 8 dereferenceable(8) %1, ptr noundef nonnull align 8 dereferenceable(8) %3)
          to label %4 unwind label %13

4:                                                ; preds = %2
  invoke void @_ZN10SearchMenu9updateGUIERK5QListIP7QActionE(ptr noundef nonnull align 8 dereferenceable(72) %0, ptr noundef nonnull align 8 dereferenceable(8) %3)
          to label %5 unwind label %13

5:                                                ; preds = %4
  %6 = load ptr, ptr %3, align 8
  %7 = load atomic i32, ptr %6 monotonic, align 4
  switch i32 %7, label %_ZN9QtPrivate8RefCount5derefEv.exit.i [
    i32 0, label %_ZN9QtPrivate8RefCount5derefEv.exit.thread2.i
    i32 -1, label %_ZN5QListIP7QActionED2Ev.exit
  ]

_ZN9QtPrivate8RefCount5derefEv.exit.i:            ; preds = %5
  %8 = atomicrmw sub ptr %6, i32 1 seq_cst, align 4
  %.not.i = icmp eq i32 %8, 1
  br i1 %.not.i, label %_ZN9QtPrivate8RefCount5derefEv.exit._ZN9QtPrivate8RefCount5derefEv.exit.thread2_crit_edge.i, label %_ZN5QListIP7QActionED2Ev.exit

_ZN9QtPrivate8RefCount5derefEv.exit._ZN9QtPrivate8RefCount5derefEv.exit.thread2_crit_edge.i: ; preds = %_ZN9QtPrivate8RefCount5derefEv.exit.i
  %.pre.i = load ptr, ptr %3, align 8
  br label %_ZN9QtPrivate8RefCount5derefEv.exit.thread2.i

_ZN9QtPrivate8RefCount5derefEv.exit.thread2.i:    ; preds = %_ZN9QtPrivate8RefCount5derefEv.exit._ZN9QtPrivate8RefCount5derefEv.exit.thread2_crit_edge.i, %5
  %9 = phi ptr [ %.pre.i, %_ZN9QtPrivate8RefCount5derefEv.exit._ZN9QtPrivate8RefCount5derefEv.exit.thread2_crit_edge.i ], [ %6, %5 ]
  invoke void @_ZN9QListData7disposeEPNS_4DataE(ptr noundef %9)
          to label %_ZN5QListIP7QActionED2Ev.exit unwind label %10

10:                                               ; preds = %_ZN9QtPrivate8RefCount5derefEv.exit.thread2.i
  %11 = landingpad { ptr, i32 }
          catch ptr null
  %12 = extractvalue { ptr, i32 } %11, 0
  call void @__clang_call_terminate(ptr %12) #14
  unreachable

_ZN5QListIP7QActionED2Ev.exit:                    ; preds = %5, %_ZN9QtPrivate8RefCount5derefEv.exit.i, %_ZN9QtPrivate8RefCount5derefEv.exit.thread2.i
  ret void

13:                                               ; preds = %4, %2
  %14 = landingpad { ptr, i32 }
          cleanup
  call void @_ZN5QListIP7QActionED2Ev(ptr noundef nonnull align 8 dereferenceable(8) %3) #11
  resume { ptr, i32 } %14
}